
bomb:     file format elf32-i386


Disassembly of section .init:

08048734 <_init>:
 8048734:	53                   	push   %ebx
 8048735:	83 ec 08             	sub    $0x8,%esp
 8048738:	e8 83 02 00 00       	call   80489c0 <__x86.get_pc_thunk.bx>
 804873d:	81 c3 bb 29 00 00    	add    $0x29bb,%ebx
 8048743:	8b 83 fc ff ff ff    	mov    -0x4(%ebx),%eax
 8048749:	85 c0                	test   %eax,%eax
 804874b:	74 05                	je     8048752 <_init+0x1e>
 804874d:	e8 2e 01 00 00       	call   8048880 <__gmon_start__@plt>
 8048752:	83 c4 08             	add    $0x8,%esp
 8048755:	5b                   	pop    %ebx
 8048756:	c3                   	ret    

Disassembly of section .plt:

08048760 <cuserid@plt-0x10>:
 8048760:	ff 35 fc b0 04 08    	pushl  0x804b0fc
 8048766:	ff 25 00 b1 04 08    	jmp    *0x804b100
 804876c:	00 00                	add    %al,(%eax)
	...

08048770 <cuserid@plt>:
 8048770:	ff 25 04 b1 04 08    	jmp    *0x804b104
 8048776:	68 00 00 00 00       	push   $0x0
 804877b:	e9 e0 ff ff ff       	jmp    8048760 <_init+0x2c>

08048780 <printf@plt>:
 8048780:	ff 25 08 b1 04 08    	jmp    *0x804b108
 8048786:	68 08 00 00 00       	push   $0x8
 804878b:	e9 d0 ff ff ff       	jmp    8048760 <_init+0x2c>

08048790 <fflush@plt>:
 8048790:	ff 25 0c b1 04 08    	jmp    *0x804b10c
 8048796:	68 10 00 00 00       	push   $0x10
 804879b:	e9 c0 ff ff ff       	jmp    8048760 <_init+0x2c>

080487a0 <dup@plt>:
 80487a0:	ff 25 10 b1 04 08    	jmp    *0x804b110
 80487a6:	68 18 00 00 00       	push   $0x18
 80487ab:	e9 b0 ff ff ff       	jmp    8048760 <_init+0x2c>

080487b0 <inet_pton@plt>:
 80487b0:	ff 25 14 b1 04 08    	jmp    *0x804b114
 80487b6:	68 20 00 00 00       	push   $0x20
 80487bb:	e9 a0 ff ff ff       	jmp    8048760 <_init+0x2c>

080487c0 <fgets@plt>:
 80487c0:	ff 25 18 b1 04 08    	jmp    *0x804b118
 80487c6:	68 28 00 00 00       	push   $0x28
 80487cb:	e9 90 ff ff ff       	jmp    8048760 <_init+0x2c>

080487d0 <fclose@plt>:
 80487d0:	ff 25 1c b1 04 08    	jmp    *0x804b11c
 80487d6:	68 30 00 00 00       	push   $0x30
 80487db:	e9 80 ff ff ff       	jmp    8048760 <_init+0x2c>

080487e0 <signal@plt>:
 80487e0:	ff 25 20 b1 04 08    	jmp    *0x804b120
 80487e6:	68 38 00 00 00       	push   $0x38
 80487eb:	e9 70 ff ff ff       	jmp    8048760 <_init+0x2c>

080487f0 <sleep@plt>:
 80487f0:	ff 25 24 b1 04 08    	jmp    *0x804b124
 80487f6:	68 40 00 00 00       	push   $0x40
 80487fb:	e9 60 ff ff ff       	jmp    8048760 <_init+0x2c>

08048800 <rewind@plt>:
 8048800:	ff 25 28 b1 04 08    	jmp    *0x804b128
 8048806:	68 48 00 00 00       	push   $0x48
 804880b:	e9 50 ff ff ff       	jmp    8048760 <_init+0x2c>

08048810 <fwrite@plt>:
 8048810:	ff 25 2c b1 04 08    	jmp    *0x804b12c
 8048816:	68 50 00 00 00       	push   $0x50
 804881b:	e9 40 ff ff ff       	jmp    8048760 <_init+0x2c>

08048820 <bcopy@plt>:
 8048820:	ff 25 30 b1 04 08    	jmp    *0x804b130
 8048826:	68 58 00 00 00       	push   $0x58
 804882b:	e9 30 ff ff ff       	jmp    8048760 <_init+0x2c>

08048830 <strcat@plt>:
 8048830:	ff 25 34 b1 04 08    	jmp    *0x804b134
 8048836:	68 60 00 00 00       	push   $0x60
 804883b:	e9 20 ff ff ff       	jmp    8048760 <_init+0x2c>

08048840 <strcpy@plt>:
 8048840:	ff 25 38 b1 04 08    	jmp    *0x804b138
 8048846:	68 68 00 00 00       	push   $0x68
 804884b:	e9 10 ff ff ff       	jmp    8048760 <_init+0x2c>

08048850 <getenv@plt>:
 8048850:	ff 25 3c b1 04 08    	jmp    *0x804b13c
 8048856:	68 70 00 00 00       	push   $0x70
 804885b:	e9 00 ff ff ff       	jmp    8048760 <_init+0x2c>

08048860 <puts@plt>:
 8048860:	ff 25 40 b1 04 08    	jmp    *0x804b140
 8048866:	68 78 00 00 00       	push   $0x78
 804886b:	e9 f0 fe ff ff       	jmp    8048760 <_init+0x2c>

08048870 <system@plt>:
 8048870:	ff 25 44 b1 04 08    	jmp    *0x804b144
 8048876:	68 80 00 00 00       	push   $0x80
 804887b:	e9 e0 fe ff ff       	jmp    8048760 <_init+0x2c>

08048880 <__gmon_start__@plt>:
 8048880:	ff 25 48 b1 04 08    	jmp    *0x804b148
 8048886:	68 88 00 00 00       	push   $0x88
 804888b:	e9 d0 fe ff ff       	jmp    8048760 <_init+0x2c>

08048890 <exit@plt>:
 8048890:	ff 25 4c b1 04 08    	jmp    *0x804b14c
 8048896:	68 90 00 00 00       	push   $0x90
 804889b:	e9 c0 fe ff ff       	jmp    8048760 <_init+0x2c>

080488a0 <__libc_start_main@plt>:
 80488a0:	ff 25 50 b1 04 08    	jmp    *0x804b150
 80488a6:	68 98 00 00 00       	push   $0x98
 80488ab:	e9 b0 fe ff ff       	jmp    8048760 <_init+0x2c>

080488b0 <fprintf@plt>:
 80488b0:	ff 25 54 b1 04 08    	jmp    *0x804b154
 80488b6:	68 a0 00 00 00       	push   $0xa0
 80488bb:	e9 a0 fe ff ff       	jmp    8048760 <_init+0x2c>

080488c0 <write@plt>:
 80488c0:	ff 25 58 b1 04 08    	jmp    *0x804b158
 80488c6:	68 a8 00 00 00       	push   $0xa8
 80488cb:	e9 90 fe ff ff       	jmp    8048760 <_init+0x2c>

080488d0 <__isoc99_sscanf@plt>:
 80488d0:	ff 25 5c b1 04 08    	jmp    *0x804b15c
 80488d6:	68 b0 00 00 00       	push   $0xb0
 80488db:	e9 80 fe ff ff       	jmp    8048760 <_init+0x2c>

080488e0 <fopen@plt>:
 80488e0:	ff 25 60 b1 04 08    	jmp    *0x804b160
 80488e6:	68 b8 00 00 00       	push   $0xb8
 80488eb:	e9 70 fe ff ff       	jmp    8048760 <_init+0x2c>

080488f0 <__errno_location@plt>:
 80488f0:	ff 25 64 b1 04 08    	jmp    *0x804b164
 80488f6:	68 c0 00 00 00       	push   $0xc0
 80488fb:	e9 60 fe ff ff       	jmp    8048760 <_init+0x2c>

08048900 <fputc@plt>:
 8048900:	ff 25 68 b1 04 08    	jmp    *0x804b168
 8048906:	68 c8 00 00 00       	push   $0xc8
 804890b:	e9 50 fe ff ff       	jmp    8048760 <_init+0x2c>

08048910 <sprintf@plt>:
 8048910:	ff 25 6c b1 04 08    	jmp    *0x804b16c
 8048916:	68 d0 00 00 00       	push   $0xd0
 804891b:	e9 40 fe ff ff       	jmp    8048760 <_init+0x2c>

08048920 <tmpfile@plt>:
 8048920:	ff 25 70 b1 04 08    	jmp    *0x804b170
 8048926:	68 d8 00 00 00       	push   $0xd8
 804892b:	e9 30 fe ff ff       	jmp    8048760 <_init+0x2c>

08048930 <socket@plt>:
 8048930:	ff 25 74 b1 04 08    	jmp    *0x804b174
 8048936:	68 e0 00 00 00       	push   $0xe0
 804893b:	e9 20 fe ff ff       	jmp    8048760 <_init+0x2c>

08048940 <gethostbyname@plt>:
 8048940:	ff 25 78 b1 04 08    	jmp    *0x804b178
 8048946:	68 e8 00 00 00       	push   $0xe8
 804894b:	e9 10 fe ff ff       	jmp    8048760 <_init+0x2c>

08048950 <strtol@plt>:
 8048950:	ff 25 7c b1 04 08    	jmp    *0x804b17c
 8048956:	68 f0 00 00 00       	push   $0xf0
 804895b:	e9 00 fe ff ff       	jmp    8048760 <_init+0x2c>

08048960 <connect@plt>:
 8048960:	ff 25 80 b1 04 08    	jmp    *0x804b180
 8048966:	68 f8 00 00 00       	push   $0xf8
 804896b:	e9 f0 fd ff ff       	jmp    8048760 <_init+0x2c>

08048970 <close@plt>:
 8048970:	ff 25 84 b1 04 08    	jmp    *0x804b184
 8048976:	68 00 01 00 00       	push   $0x100
 804897b:	e9 e0 fd ff ff       	jmp    8048760 <_init+0x2c>

08048980 <__ctype_b_loc@plt>:
 8048980:	ff 25 88 b1 04 08    	jmp    *0x804b188
 8048986:	68 08 01 00 00       	push   $0x108
 804898b:	e9 d0 fd ff ff       	jmp    8048760 <_init+0x2c>

Disassembly of section .text:

08048990 <_start>:
 8048990:	31 ed                	xor    %ebp,%ebp
 8048992:	5e                   	pop    %esi
 8048993:	89 e1                	mov    %esp,%ecx
 8048995:	83 e4 f0             	and    $0xfffffff0,%esp
 8048998:	50                   	push   %eax
 8048999:	54                   	push   %esp
 804899a:	52                   	push   %edx
 804899b:	68 60 99 04 08       	push   $0x8049960
 80489a0:	68 f0 98 04 08       	push   $0x80498f0
 80489a5:	51                   	push   %ecx
 80489a6:	56                   	push   %esi
 80489a7:	68 8b 8a 04 08       	push   $0x8048a8b
 80489ac:	e8 ef fe ff ff       	call   80488a0 <__libc_start_main@plt>
 80489b1:	f4                   	hlt    
 80489b2:	66 90                	xchg   %ax,%ax
 80489b4:	66 90                	xchg   %ax,%ax
 80489b6:	66 90                	xchg   %ax,%ax
 80489b8:	66 90                	xchg   %ax,%ax
 80489ba:	66 90                	xchg   %ax,%ax
 80489bc:	66 90                	xchg   %ax,%ax
 80489be:	66 90                	xchg   %ax,%ax

080489c0 <__x86.get_pc_thunk.bx>:
 80489c0:	8b 1c 24             	mov    (%esp),%ebx
 80489c3:	c3                   	ret    
 80489c4:	66 90                	xchg   %ax,%ax
 80489c6:	66 90                	xchg   %ax,%ax
 80489c8:	66 90                	xchg   %ax,%ax
 80489ca:	66 90                	xchg   %ax,%ax
 80489cc:	66 90                	xchg   %ax,%ax
 80489ce:	66 90                	xchg   %ax,%ax

080489d0 <deregister_tm_clones>:
 80489d0:	b8 47 b7 04 08       	mov    $0x804b747,%eax
 80489d5:	2d 44 b7 04 08       	sub    $0x804b744,%eax
 80489da:	83 f8 06             	cmp    $0x6,%eax
 80489dd:	76 1a                	jbe    80489f9 <deregister_tm_clones+0x29>
 80489df:	b8 00 00 00 00       	mov    $0x0,%eax
 80489e4:	85 c0                	test   %eax,%eax
 80489e6:	74 11                	je     80489f9 <deregister_tm_clones+0x29>
 80489e8:	55                   	push   %ebp
 80489e9:	89 e5                	mov    %esp,%ebp
 80489eb:	83 ec 14             	sub    $0x14,%esp
 80489ee:	68 44 b7 04 08       	push   $0x804b744
 80489f3:	ff d0                	call   *%eax
 80489f5:	83 c4 10             	add    $0x10,%esp
 80489f8:	c9                   	leave  
 80489f9:	f3 c3                	repz ret 
 80489fb:	90                   	nop
 80489fc:	8d 74 26 00          	lea    0x0(%esi,%eiz,1),%esi

08048a00 <register_tm_clones>:
 8048a00:	b8 44 b7 04 08       	mov    $0x804b744,%eax
 8048a05:	2d 44 b7 04 08       	sub    $0x804b744,%eax
 8048a0a:	c1 f8 02             	sar    $0x2,%eax
 8048a0d:	89 c2                	mov    %eax,%edx
 8048a0f:	c1 ea 1f             	shr    $0x1f,%edx
 8048a12:	01 d0                	add    %edx,%eax
 8048a14:	d1 f8                	sar    %eax
 8048a16:	74 1b                	je     8048a33 <register_tm_clones+0x33>
 8048a18:	ba 00 00 00 00       	mov    $0x0,%edx
 8048a1d:	85 d2                	test   %edx,%edx
 8048a1f:	74 12                	je     8048a33 <register_tm_clones+0x33>
 8048a21:	55                   	push   %ebp
 8048a22:	89 e5                	mov    %esp,%ebp
 8048a24:	83 ec 10             	sub    $0x10,%esp
 8048a27:	50                   	push   %eax
 8048a28:	68 44 b7 04 08       	push   $0x804b744
 8048a2d:	ff d2                	call   *%edx
 8048a2f:	83 c4 10             	add    $0x10,%esp
 8048a32:	c9                   	leave  
 8048a33:	f3 c3                	repz ret 
 8048a35:	8d 74 26 00          	lea    0x0(%esi,%eiz,1),%esi
 8048a39:	8d bc 27 00 00 00 00 	lea    0x0(%edi,%eiz,1),%edi

08048a40 <__do_global_dtors_aux>:
 8048a40:	80 3d a4 b7 04 08 00 	cmpb   $0x0,0x804b7a4
 8048a47:	75 13                	jne    8048a5c <__do_global_dtors_aux+0x1c>
 8048a49:	55                   	push   %ebp
 8048a4a:	89 e5                	mov    %esp,%ebp
 8048a4c:	83 ec 08             	sub    $0x8,%esp
 8048a4f:	e8 7c ff ff ff       	call   80489d0 <deregister_tm_clones>
 8048a54:	c6 05 a4 b7 04 08 01 	movb   $0x1,0x804b7a4
 8048a5b:	c9                   	leave  
 8048a5c:	f3 c3                	repz ret 
 8048a5e:	66 90                	xchg   %ax,%ax

08048a60 <frame_dummy>:
 8048a60:	b8 08 b0 04 08       	mov    $0x804b008,%eax
 8048a65:	8b 10                	mov    (%eax),%edx
 8048a67:	85 d2                	test   %edx,%edx
 8048a69:	75 05                	jne    8048a70 <frame_dummy+0x10>
 8048a6b:	eb 93                	jmp    8048a00 <register_tm_clones>
 8048a6d:	8d 76 00             	lea    0x0(%esi),%esi
 8048a70:	ba 00 00 00 00       	mov    $0x0,%edx
 8048a75:	85 d2                	test   %edx,%edx
 8048a77:	74 f2                	je     8048a6b <frame_dummy+0xb>
 8048a79:	55                   	push   %ebp
 8048a7a:	89 e5                	mov    %esp,%ebp
 8048a7c:	83 ec 14             	sub    $0x14,%esp
 8048a7f:	50                   	push   %eax
 8048a80:	ff d2                	call   *%edx
 8048a82:	83 c4 10             	add    $0x10,%esp
 8048a85:	c9                   	leave  
 8048a86:	e9 75 ff ff ff       	jmp    8048a00 <register_tm_clones>

08048a8b <main>:
 8048a8b:	8d 4c 24 04          	lea    0x4(%esp),%ecx
 8048a8f:	83 e4 f0             	and    $0xfffffff0,%esp
 8048a92:	ff 71 fc             	pushl  -0x4(%ecx)
 8048a95:	55                   	push   %ebp
 8048a96:	89 e5                	mov    %esp,%ebp
 8048a98:	53                   	push   %ebx
 8048a99:	51                   	push   %ecx
 8048a9a:	8b 01                	mov    (%ecx),%eax
 8048a9c:	8b 59 04             	mov    0x4(%ecx),%ebx
 8048a9f:	83 f8 01             	cmp    $0x1,%eax
 8048aa2:	75 0c                	jne    8048ab0 <main+0x25>
 8048aa4:	a1 80 b7 04 08       	mov    0x804b780,%eax
 8048aa9:	a3 ac b7 04 08       	mov    %eax,0x804b7ac
 8048aae:	eb 5a                	jmp    8048b0a <main+0x7f>
 8048ab0:	83 f8 02             	cmp    $0x2,%eax
 8048ab3:	75 3a                	jne    8048aef <main+0x64>
 8048ab5:	83 ec 08             	sub    $0x8,%esp
 8048ab8:	68 cf 9d 04 08       	push   $0x8049dcf
 8048abd:	ff 73 04             	pushl  0x4(%ebx)
 8048ac0:	e8 1b fe ff ff       	call   80488e0 <fopen@plt>
 8048ac5:	a3 ac b7 04 08       	mov    %eax,0x804b7ac
 8048aca:	83 c4 10             	add    $0x10,%esp
 8048acd:	85 c0                	test   %eax,%eax
 8048acf:	75 39                	jne    8048b0a <main+0x7f>
 8048ad1:	83 ec 04             	sub    $0x4,%esp
 8048ad4:	ff 73 04             	pushl  0x4(%ebx)
 8048ad7:	ff 33                	pushl  (%ebx)
 8048ad9:	68 88 99 04 08       	push   $0x8049988
 8048ade:	e8 9d fc ff ff       	call   8048780 <printf@plt>
 8048ae3:	c7 04 24 08 00 00 00 	movl   $0x8,(%esp)
 8048aea:	e8 a1 fd ff ff       	call   8048890 <exit@plt>
 8048aef:	83 ec 08             	sub    $0x8,%esp
 8048af2:	ff 33                	pushl  (%ebx)
 8048af4:	68 a5 99 04 08       	push   $0x80499a5
 8048af9:	e8 82 fc ff ff       	call   8048780 <printf@plt>
 8048afe:	c7 04 24 08 00 00 00 	movl   $0x8,(%esp)
 8048b05:	e8 86 fd ff ff       	call   8048890 <exit@plt>
 8048b0a:	e8 ca 05 00 00       	call   80490d9 <initialize_bomb>
 8048b0f:	83 ec 0c             	sub    $0xc,%esp
 8048b12:	68 0c 9a 04 08       	push   $0x8049a0c
 8048b17:	e8 44 fd ff ff       	call   8048860 <puts@plt>
 8048b1c:	c7 04 24 48 9a 04 08 	movl   $0x8049a48,(%esp)
 8048b23:	e8 38 fd ff ff       	call   8048860 <puts@plt>
 8048b28:	e8 5f 0c 00 00       	call   804978c <read_line>
 8048b2d:	89 04 24             	mov    %eax,(%esp)
 8048b30:	e8 ad 00 00 00       	call   8048be2 <phase_1>
 8048b35:	e8 19 0d 00 00       	call   8049853 <phase_defused>
 8048b3a:	c7 04 24 74 9a 04 08 	movl   $0x8049a74,(%esp)
 8048b41:	e8 1a fd ff ff       	call   8048860 <puts@plt>
 8048b46:	e8 41 0c 00 00       	call   804978c <read_line>
 8048b4b:	89 04 24             	mov    %eax,(%esp)
 8048b4e:	e8 b0 00 00 00       	call   8048c03 <phase_2>
 8048b53:	e8 fb 0c 00 00       	call   8049853 <phase_defused>
 8048b58:	c7 04 24 bf 99 04 08 	movl   $0x80499bf,(%esp)
 8048b5f:	e8 fc fc ff ff       	call   8048860 <puts@plt>
 8048b64:	e8 23 0c 00 00       	call   804978c <read_line>
 8048b69:	89 04 24             	mov    %eax,(%esp)
 8048b6c:	e8 df 00 00 00       	call   8048c50 <phase_3>
 8048b71:	e8 dd 0c 00 00       	call   8049853 <phase_defused>
 8048b76:	c7 04 24 dd 99 04 08 	movl   $0x80499dd,(%esp)
 8048b7d:	e8 de fc ff ff       	call   8048860 <puts@plt>
 8048b82:	e8 05 0c 00 00       	call   804978c <read_line>
 8048b87:	89 04 24             	mov    %eax,(%esp)
 8048b8a:	e8 75 01 00 00       	call   8048d04 <phase_4>
 8048b8f:	e8 bf 0c 00 00       	call   8049853 <phase_defused>
 8048b94:	c7 04 24 a0 9a 04 08 	movl   $0x8049aa0,(%esp)
 8048b9b:	e8 c0 fc ff ff       	call   8048860 <puts@plt>
 8048ba0:	e8 e7 0b 00 00       	call   804978c <read_line>
 8048ba5:	89 04 24             	mov    %eax,(%esp)
 8048ba8:	e8 9e 01 00 00       	call   8048d4b <phase_5>
 8048bad:	e8 a1 0c 00 00       	call   8049853 <phase_defused>
 8048bb2:	c7 04 24 ec 99 04 08 	movl   $0x80499ec,(%esp)
 8048bb9:	e8 a2 fc ff ff       	call   8048860 <puts@plt>
 8048bbe:	e8 c9 0b 00 00       	call   804978c <read_line>
 8048bc3:	89 04 24             	mov    %eax,(%esp)
 8048bc6:	e8 44 02 00 00       	call   8048e0f <phase_6>
 8048bcb:	e8 83 0c 00 00       	call   8049853 <phase_defused>
 8048bd0:	83 c4 10             	add    $0x10,%esp
 8048bd3:	b8 00 00 00 00       	mov    $0x0,%eax
 8048bd8:	8d 65 f8             	lea    -0x8(%ebp),%esp
 8048bdb:	59                   	pop    %ecx
 8048bdc:	5b                   	pop    %ebx
 8048bdd:	5d                   	pop    %ebp
 8048bde:	8d 61 fc             	lea    -0x4(%ecx),%esp
 8048be1:	c3                   	ret    

08048be2 <phase_1>:
 8048be2:	83 ec 14             	sub    $0x14,%esp
 8048be5:	68 c4 9a 04 08       	push   $0x8049ac4
 8048bea:	ff 74 24 1c          	pushl  0x1c(%esp)
 8048bee:	e8 a5 03 00 00       	call   8048f98 <strings_not_equal>
 8048bf3:	83 c4 10             	add    $0x10,%esp
 8048bf6:	85 c0                	test   %eax,%eax
 8048bf8:	74 05                	je     8048bff <phase_1+0x1d>
 8048bfa:	e8 15 0b 00 00       	call   8049714 <explode_bomb>
 8048bff:	83 c4 0c             	add    $0xc,%esp
 8048c02:	c3                   	ret    

08048c03 <phase_2>:
 8048c03:	53                   	push   %ebx
 8048c04:	83 ec 30             	sub    $0x30,%esp
 8048c07:	8d 44 24 10          	lea    0x10(%esp),%eax
 8048c0b:	50                   	push   %eax
 8048c0c:	ff 74 24 3c          	pushl  0x3c(%esp)
 8048c10:	e8 3c 0b 00 00       	call   8049751 <read_six_numbers>
 8048c15:	83 c4 10             	add    $0x10,%esp
 8048c18:	83 7c 24 08 01       	cmpl   $0x1,0x8(%esp)
 8048c1d:	74 25                	je     8048c44 <phase_2+0x41>
 8048c1f:	e8 f0 0a 00 00       	call   8049714 <explode_bomb>
 8048c24:	eb 1e                	jmp    8048c44 <phase_2+0x41>
 8048c26:	89 d8                	mov    %ebx,%eax
 8048c28:	83 c3 01             	add    $0x1,%ebx
 8048c2b:	89 da                	mov    %ebx,%edx
 8048c2d:	0f af 54 84 04       	imul   0x4(%esp,%eax,4),%edx
 8048c32:	39 54 84 08          	cmp    %edx,0x8(%esp,%eax,4)
 8048c36:	74 05                	je     8048c3d <phase_2+0x3a>
 8048c38:	e8 d7 0a 00 00       	call   8049714 <explode_bomb>
 8048c3d:	83 fb 06             	cmp    $0x6,%ebx
 8048c40:	75 e4                	jne    8048c26 <phase_2+0x23>
 8048c42:	eb 07                	jmp    8048c4b <phase_2+0x48>
 8048c44:	bb 01 00 00 00       	mov    $0x1,%ebx
 8048c49:	eb db                	jmp    8048c26 <phase_2+0x23>
 8048c4b:	83 c4 28             	add    $0x28,%esp
 8048c4e:	5b                   	pop    %ebx
 8048c4f:	c3                   	ret    

08048c50 <phase_3>:
 8048c50:	83 ec 1c             	sub    $0x1c,%esp
 8048c53:	8d 44 24 08          	lea    0x8(%esp),%eax
 8048c57:	50                   	push   %eax
 8048c58:	8d 44 24 10          	lea    0x10(%esp),%eax
 8048c5c:	50                   	push   %eax
 8048c5d:	68 d8 9e 04 08       	push   $0x8049ed8
 8048c62:	ff 74 24 2c          	pushl  0x2c(%esp)
 8048c66:	e8 65 fc ff ff       	call   80488d0 <__isoc99_sscanf@plt>
 8048c6b:	83 c4 10             	add    $0x10,%esp
 8048c6e:	83 f8 01             	cmp    $0x1,%eax
 8048c71:	7f 05                	jg     8048c78 <phase_3+0x28>
 8048c73:	e8 9c 0a 00 00       	call   8049714 <explode_bomb>
 8048c78:	83 7c 24 0c 07       	cmpl   $0x7,0xc(%esp)
 8048c7d:	77 3c                	ja     8048cbb <phase_3+0x6b>
 8048c7f:	8b 44 24 0c          	mov    0xc(%esp),%eax
 8048c83:	ff 24 85 40 9b 04 08 	jmp    *0x8049b40(,%eax,4)
 8048c8a:	b8 c5 03 00 00       	mov    $0x3c5,%eax
 8048c8f:	eb 3b                	jmp    8048ccc <phase_3+0x7c>
 8048c91:	b8 01 02 00 00       	mov    $0x201,%eax
 8048c96:	eb 34                	jmp    8048ccc <phase_3+0x7c>
 8048c98:	b8 65 00 00 00       	mov    $0x65,%eax
 8048c9d:	eb 2d                	jmp    8048ccc <phase_3+0x7c>
 8048c9f:	b8 bb 03 00 00       	mov    $0x3bb,%eax
 8048ca4:	eb 26                	jmp    8048ccc <phase_3+0x7c>
 8048ca6:	b8 01 02 00 00       	mov    $0x201,%eax
 8048cab:	eb 1f                	jmp    8048ccc <phase_3+0x7c>
 8048cad:	b8 83 00 00 00       	mov    $0x83,%eax
 8048cb2:	eb 18                	jmp    8048ccc <phase_3+0x7c>
 8048cb4:	b8 59 01 00 00       	mov    $0x159,%eax
 8048cb9:	eb 11                	jmp    8048ccc <phase_3+0x7c>
 8048cbb:	e8 54 0a 00 00       	call   8049714 <explode_bomb>
 8048cc0:	b8 00 00 00 00       	mov    $0x0,%eax
 8048cc5:	eb 05                	jmp    8048ccc <phase_3+0x7c>
 8048cc7:	b8 92 03 00 00       	mov    $0x392,%eax
 8048ccc:	3b 44 24 08          	cmp    0x8(%esp),%eax
 8048cd0:	74 05                	je     8048cd7 <phase_3+0x87>
 8048cd2:	e8 3d 0a 00 00       	call   8049714 <explode_bomb>
 8048cd7:	83 c4 1c             	add    $0x1c,%esp
 8048cda:	c3                   	ret    

08048cdb <func4>:
 8048cdb:	53                   	push   %ebx
 8048cdc:	83 ec 08             	sub    $0x8,%esp
 8048cdf:	8b 5c 24 10          	mov    0x10(%esp),%ebx
 8048ce3:	b8 01 00 00 00       	mov    $0x1,%eax
 8048ce8:	83 fb 01             	cmp    $0x1,%ebx
 8048ceb:	7e 12                	jle    8048cff <func4+0x24>
 8048ced:	83 ec 0c             	sub    $0xc,%esp
 8048cf0:	8d 43 ff             	lea    -0x1(%ebx),%eax
 8048cf3:	50                   	push   %eax
 8048cf4:	e8 e2 ff ff ff       	call   8048cdb <func4>
 8048cf9:	83 c4 10             	add    $0x10,%esp
 8048cfc:	0f af c3             	imul   %ebx,%eax
 8048cff:	83 c4 08             	add    $0x8,%esp
 8048d02:	5b                   	pop    %ebx
 8048d03:	c3                   	ret    

08048d04 <phase_4>:
 8048d04:	83 ec 20             	sub    $0x20,%esp
 8048d07:	8d 44 24 10          	lea    0x10(%esp),%eax
 8048d0b:	50                   	push   %eax
 8048d0c:	68 db 9e 04 08       	push   $0x8049edb
 8048d11:	ff 74 24 2c          	pushl  0x2c(%esp)
 8048d15:	e8 b6 fb ff ff       	call   80488d0 <__isoc99_sscanf@plt>
 8048d1a:	83 c4 10             	add    $0x10,%esp
 8048d1d:	83 f8 01             	cmp    $0x1,%eax
 8048d20:	75 07                	jne    8048d29 <phase_4+0x25>
 8048d22:	83 7c 24 0c 00       	cmpl   $0x0,0xc(%esp)
 8048d27:	7f 05                	jg     8048d2e <phase_4+0x2a>
 8048d29:	e8 e6 09 00 00       	call   8049714 <explode_bomb>
 8048d2e:	83 ec 0c             	sub    $0xc,%esp
 8048d31:	ff 74 24 18          	pushl  0x18(%esp)
 8048d35:	e8 a1 ff ff ff       	call   8048cdb <func4>
 8048d3a:	83 c4 10             	add    $0x10,%esp
 8048d3d:	83 f8 18             	cmp    $0x18,%eax
 8048d40:	74 05                	je     8048d47 <phase_4+0x43>
 8048d42:	e8 cd 09 00 00       	call   8049714 <explode_bomb>
 8048d47:	83 c4 1c             	add    $0x1c,%esp
 8048d4a:	c3                   	ret    

08048d4b <phase_5>:
 8048d4b:	83 ec 1c             	sub    $0x1c,%esp
 8048d4e:	8d 44 24 08          	lea    0x8(%esp),%eax
 8048d52:	50                   	push   %eax
 8048d53:	8d 44 24 10          	lea    0x10(%esp),%eax
 8048d57:	50                   	push   %eax
 8048d58:	68 d8 9e 04 08       	push   $0x8049ed8
 8048d5d:	ff 74 24 2c          	pushl  0x2c(%esp)
 8048d61:	e8 6a fb ff ff       	call   80488d0 <__isoc99_sscanf@plt>
 8048d66:	83 c4 10             	add    $0x10,%esp
 8048d69:	83 f8 01             	cmp    $0x1,%eax
 8048d6c:	7f 05                	jg     8048d73 <phase_5+0x28>
 8048d6e:	e8 a1 09 00 00       	call   8049714 <explode_bomb>
 8048d73:	8b 44 24 0c          	mov    0xc(%esp),%eax
 8048d77:	83 e0 0f             	and    $0xf,%eax
 8048d7a:	89 44 24 0c          	mov    %eax,0xc(%esp)
 8048d7e:	83 f8 0f             	cmp    $0xf,%eax
 8048d81:	74 2e                	je     8048db1 <phase_5+0x66>
 8048d83:	b9 00 00 00 00       	mov    $0x0,%ecx
 8048d88:	ba 00 00 00 00       	mov    $0x0,%edx
 8048d8d:	83 c2 01             	add    $0x1,%edx
 8048d90:	8b 04 85 80 9b 04 08 	mov    0x8049b80(,%eax,4),%eax
 8048d97:	01 c1                	add    %eax,%ecx
 8048d99:	83 f8 0f             	cmp    $0xf,%eax
 8048d9c:	75 ef                	jne    8048d8d <phase_5+0x42>
 8048d9e:	c7 44 24 0c 0f 00 00 	movl   $0xf,0xc(%esp)
 8048da5:	00 
 8048da6:	83 fa 08             	cmp    $0x8,%edx
 8048da9:	75 06                	jne    8048db1 <phase_5+0x66>
 8048dab:	3b 4c 24 08          	cmp    0x8(%esp),%ecx
 8048daf:	74 05                	je     8048db6 <phase_5+0x6b>
 8048db1:	e8 5e 09 00 00       	call   8049714 <explode_bomb>
 8048db6:	83 c4 1c             	add    $0x1c,%esp
 8048db9:	c3                   	ret    

08048dba <fun6>:
 8048dba:	56                   	push   %esi
 8048dbb:	53                   	push   %ebx
 8048dbc:	8b 44 24 0c          	mov    0xc(%esp),%eax
 8048dc0:	8b 70 08             	mov    0x8(%eax),%esi
 8048dc3:	c7 40 08 00 00 00 00 	movl   $0x0,0x8(%eax)
 8048dca:	85 f6                	test   %esi,%esi
 8048dcc:	75 2c                	jne    8048dfa <fun6+0x40>
 8048dce:	eb 3c                	jmp    8048e0c <fun6+0x52>
 8048dd0:	89 d1                	mov    %edx,%ecx
 8048dd2:	8b 51 08             	mov    0x8(%ecx),%edx
 8048dd5:	85 d2                	test   %edx,%edx
 8048dd7:	74 04                	je     8048ddd <fun6+0x23>
 8048dd9:	39 1a                	cmp    %ebx,(%edx)
 8048ddb:	7f f3                	jg     8048dd0 <fun6+0x16>
 8048ddd:	39 d1                	cmp    %edx,%ecx
 8048ddf:	74 05                	je     8048de6 <fun6+0x2c>
 8048de1:	89 71 08             	mov    %esi,0x8(%ecx)
 8048de4:	eb 08                	jmp    8048dee <fun6+0x34>
 8048de6:	89 f0                	mov    %esi,%eax
 8048de8:	eb 04                	jmp    8048dee <fun6+0x34>
 8048dea:	89 c2                	mov    %eax,%edx
 8048dec:	89 f0                	mov    %esi,%eax
 8048dee:	8b 4e 08             	mov    0x8(%esi),%ecx
 8048df1:	89 56 08             	mov    %edx,0x8(%esi)
 8048df4:	85 c9                	test   %ecx,%ecx
 8048df6:	74 14                	je     8048e0c <fun6+0x52>
 8048df8:	89 ce                	mov    %ecx,%esi
 8048dfa:	85 c0                	test   %eax,%eax
 8048dfc:	74 ec                	je     8048dea <fun6+0x30>
 8048dfe:	8b 1e                	mov    (%esi),%ebx
 8048e00:	89 c1                	mov    %eax,%ecx
 8048e02:	39 18                	cmp    %ebx,(%eax)
 8048e04:	7f cc                	jg     8048dd2 <fun6+0x18>
 8048e06:	89 c2                	mov    %eax,%edx
 8048e08:	89 f0                	mov    %esi,%eax
 8048e0a:	eb e2                	jmp    8048dee <fun6+0x34>
 8048e0c:	5b                   	pop    %ebx
 8048e0d:	5e                   	pop    %esi
 8048e0e:	c3                   	ret    

08048e0f <phase_6>:
 8048e0f:	83 ec 10             	sub    $0x10,%esp
 8048e12:	6a 0a                	push   $0xa
 8048e14:	6a 00                	push   $0x0
 8048e16:	ff 74 24 1c          	pushl  0x1c(%esp)
 8048e1a:	e8 31 fb ff ff       	call   8048950 <strtol@plt>
 8048e1f:	a3 b4 b2 04 08       	mov    %eax,0x804b2b4
 8048e24:	c7 04 24 b4 b2 04 08 	movl   $0x804b2b4,(%esp)
 8048e2b:	e8 8a ff ff ff       	call   8048dba <fun6>
 8048e30:	8b 40 08             	mov    0x8(%eax),%eax
 8048e33:	8b 40 08             	mov    0x8(%eax),%eax
 8048e36:	8b 40 08             	mov    0x8(%eax),%eax
 8048e39:	8b 40 08             	mov    0x8(%eax),%eax
 8048e3c:	8b 40 08             	mov    0x8(%eax),%eax
 8048e3f:	8b 40 08             	mov    0x8(%eax),%eax
 8048e42:	83 c4 10             	add    $0x10,%esp
 8048e45:	8b 15 b4 b2 04 08    	mov    0x804b2b4,%edx
 8048e4b:	39 10                	cmp    %edx,(%eax)
 8048e4d:	74 05                	je     8048e54 <phase_6+0x45>
 8048e4f:	e8 c0 08 00 00       	call   8049714 <explode_bomb>
 8048e54:	83 c4 0c             	add    $0xc,%esp
 8048e57:	c3                   	ret    

08048e58 <fun7>:
 8048e58:	53                   	push   %ebx
 8048e59:	83 ec 08             	sub    $0x8,%esp
 8048e5c:	8b 54 24 10          	mov    0x10(%esp),%edx
 8048e60:	8b 4c 24 14          	mov    0x14(%esp),%ecx
 8048e64:	85 d2                	test   %edx,%edx
 8048e66:	74 37                	je     8048e9f <fun7+0x47>
 8048e68:	8b 1a                	mov    (%edx),%ebx
 8048e6a:	39 cb                	cmp    %ecx,%ebx
 8048e6c:	7e 13                	jle    8048e81 <fun7+0x29>
 8048e6e:	83 ec 08             	sub    $0x8,%esp
 8048e71:	51                   	push   %ecx
 8048e72:	ff 72 04             	pushl  0x4(%edx)
 8048e75:	e8 de ff ff ff       	call   8048e58 <fun7>
 8048e7a:	83 c4 10             	add    $0x10,%esp
 8048e7d:	01 c0                	add    %eax,%eax
 8048e7f:	eb 23                	jmp    8048ea4 <fun7+0x4c>
 8048e81:	b8 00 00 00 00       	mov    $0x0,%eax
 8048e86:	39 cb                	cmp    %ecx,%ebx
 8048e88:	74 1a                	je     8048ea4 <fun7+0x4c>
 8048e8a:	83 ec 08             	sub    $0x8,%esp
 8048e8d:	51                   	push   %ecx
 8048e8e:	ff 72 08             	pushl  0x8(%edx)
 8048e91:	e8 c2 ff ff ff       	call   8048e58 <fun7>
 8048e96:	83 c4 10             	add    $0x10,%esp
 8048e99:	8d 44 00 01          	lea    0x1(%eax,%eax,1),%eax
 8048e9d:	eb 05                	jmp    8048ea4 <fun7+0x4c>
 8048e9f:	b8 ff ff ff ff       	mov    $0xffffffff,%eax
 8048ea4:	83 c4 08             	add    $0x8,%esp
 8048ea7:	5b                   	pop    %ebx
 8048ea8:	c3                   	ret    

08048ea9 <secret_phase>:
 8048ea9:	53                   	push   %ebx
 8048eaa:	83 ec 08             	sub    $0x8,%esp
 8048ead:	e8 da 08 00 00       	call   804978c <read_line>
 8048eb2:	83 ec 04             	sub    $0x4,%esp
 8048eb5:	6a 0a                	push   $0xa
 8048eb7:	6a 00                	push   $0x0
 8048eb9:	50                   	push   %eax
 8048eba:	e8 91 fa ff ff       	call   8048950 <strtol@plt>
 8048ebf:	89 c3                	mov    %eax,%ebx
 8048ec1:	8d 40 ff             	lea    -0x1(%eax),%eax
 8048ec4:	83 c4 10             	add    $0x10,%esp
 8048ec7:	3d e8 03 00 00       	cmp    $0x3e8,%eax
 8048ecc:	76 05                	jbe    8048ed3 <secret_phase+0x2a>
 8048ece:	e8 41 08 00 00       	call   8049714 <explode_bomb>
 8048ed3:	83 ec 08             	sub    $0x8,%esp
 8048ed6:	53                   	push   %ebx
 8048ed7:	68 00 b2 04 08       	push   $0x804b200
 8048edc:	e8 77 ff ff ff       	call   8048e58 <fun7>
 8048ee1:	83 c4 10             	add    $0x10,%esp
 8048ee4:	83 f8 06             	cmp    $0x6,%eax
 8048ee7:	74 05                	je     8048eee <secret_phase+0x45>
 8048ee9:	e8 26 08 00 00       	call   8049714 <explode_bomb>
 8048eee:	83 ec 0c             	sub    $0xc,%esp
 8048ef1:	68 04 9b 04 08       	push   $0x8049b04
 8048ef6:	e8 65 f9 ff ff       	call   8048860 <puts@plt>
 8048efb:	e8 53 09 00 00       	call   8049853 <phase_defused>
 8048f00:	83 c4 18             	add    $0x18,%esp
 8048f03:	5b                   	pop    %ebx
 8048f04:	c3                   	ret    

08048f05 <sig_handler>:
 8048f05:	83 ec 18             	sub    $0x18,%esp
 8048f08:	68 c0 9b 04 08       	push   $0x8049bc0
 8048f0d:	e8 4e f9 ff ff       	call   8048860 <puts@plt>
 8048f12:	c7 04 24 03 00 00 00 	movl   $0x3,(%esp)
 8048f19:	e8 d2 f8 ff ff       	call   80487f0 <sleep@plt>
 8048f1e:	c7 04 24 ec 9c 04 08 	movl   $0x8049cec,(%esp)
 8048f25:	e8 56 f8 ff ff       	call   8048780 <printf@plt>
 8048f2a:	83 c4 04             	add    $0x4,%esp
 8048f2d:	ff 35 a0 b7 04 08    	pushl  0x804b7a0
 8048f33:	e8 58 f8 ff ff       	call   8048790 <fflush@plt>
 8048f38:	c7 04 24 01 00 00 00 	movl   $0x1,(%esp)
 8048f3f:	e8 ac f8 ff ff       	call   80487f0 <sleep@plt>
 8048f44:	c7 04 24 f4 9c 04 08 	movl   $0x8049cf4,(%esp)
 8048f4b:	e8 10 f9 ff ff       	call   8048860 <puts@plt>
 8048f50:	c7 04 24 10 00 00 00 	movl   $0x10,(%esp)
 8048f57:	e8 34 f9 ff ff       	call   8048890 <exit@plt>

08048f5c <invalid_phase>:
 8048f5c:	83 ec 14             	sub    $0x14,%esp
 8048f5f:	ff 74 24 18          	pushl  0x18(%esp)
 8048f63:	68 fc 9c 04 08       	push   $0x8049cfc
 8048f68:	e8 13 f8 ff ff       	call   8048780 <printf@plt>
 8048f6d:	c7 04 24 08 00 00 00 	movl   $0x8,(%esp)
 8048f74:	e8 17 f9 ff ff       	call   8048890 <exit@plt>

08048f79 <string_length>:
 8048f79:	8b 54 24 04          	mov    0x4(%esp),%edx
 8048f7d:	80 3a 00             	cmpb   $0x0,(%edx)
 8048f80:	74 10                	je     8048f92 <string_length+0x19>
 8048f82:	b8 00 00 00 00       	mov    $0x0,%eax
 8048f87:	83 c0 01             	add    $0x1,%eax
 8048f8a:	80 3c 02 00          	cmpb   $0x0,(%edx,%eax,1)
 8048f8e:	75 f7                	jne    8048f87 <string_length+0xe>
 8048f90:	f3 c3                	repz ret 
 8048f92:	b8 00 00 00 00       	mov    $0x0,%eax
 8048f97:	c3                   	ret    

08048f98 <strings_not_equal>:
 8048f98:	57                   	push   %edi
 8048f99:	56                   	push   %esi
 8048f9a:	53                   	push   %ebx
 8048f9b:	8b 5c 24 10          	mov    0x10(%esp),%ebx
 8048f9f:	8b 74 24 14          	mov    0x14(%esp),%esi
 8048fa3:	53                   	push   %ebx
 8048fa4:	e8 d0 ff ff ff       	call   8048f79 <string_length>
 8048fa9:	89 c7                	mov    %eax,%edi
 8048fab:	89 34 24             	mov    %esi,(%esp)
 8048fae:	e8 c6 ff ff ff       	call   8048f79 <string_length>
 8048fb3:	83 c4 04             	add    $0x4,%esp
 8048fb6:	ba 01 00 00 00       	mov    $0x1,%edx
 8048fbb:	39 c7                	cmp    %eax,%edi
 8048fbd:	75 38                	jne    8048ff7 <strings_not_equal+0x5f>
 8048fbf:	0f b6 03             	movzbl (%ebx),%eax
 8048fc2:	84 c0                	test   %al,%al
 8048fc4:	74 1e                	je     8048fe4 <strings_not_equal+0x4c>
 8048fc6:	3a 06                	cmp    (%esi),%al
 8048fc8:	74 06                	je     8048fd0 <strings_not_equal+0x38>
 8048fca:	eb 1f                	jmp    8048feb <strings_not_equal+0x53>
 8048fcc:	3a 06                	cmp    (%esi),%al
 8048fce:	75 22                	jne    8048ff2 <strings_not_equal+0x5a>
 8048fd0:	83 c3 01             	add    $0x1,%ebx
 8048fd3:	83 c6 01             	add    $0x1,%esi
 8048fd6:	0f b6 03             	movzbl (%ebx),%eax
 8048fd9:	84 c0                	test   %al,%al
 8048fdb:	75 ef                	jne    8048fcc <strings_not_equal+0x34>
 8048fdd:	ba 00 00 00 00       	mov    $0x0,%edx
 8048fe2:	eb 13                	jmp    8048ff7 <strings_not_equal+0x5f>
 8048fe4:	ba 00 00 00 00       	mov    $0x0,%edx
 8048fe9:	eb 0c                	jmp    8048ff7 <strings_not_equal+0x5f>
 8048feb:	ba 01 00 00 00       	mov    $0x1,%edx
 8048ff0:	eb 05                	jmp    8048ff7 <strings_not_equal+0x5f>
 8048ff2:	ba 01 00 00 00       	mov    $0x1,%edx
 8048ff7:	89 d0                	mov    %edx,%eax
 8048ff9:	5b                   	pop    %ebx
 8048ffa:	5e                   	pop    %esi
 8048ffb:	5f                   	pop    %edi
 8048ffc:	c3                   	ret    

08048ffd <open_clientfd>:
 8048ffd:	56                   	push   %esi
 8048ffe:	53                   	push   %ebx
 8048fff:	83 ec 18             	sub    $0x18,%esp
 8049002:	6a 00                	push   $0x0
 8049004:	6a 01                	push   $0x1
 8049006:	6a 02                	push   $0x2
 8049008:	e8 23 f9 ff ff       	call   8048930 <socket@plt>
 804900d:	89 c3                	mov    %eax,%ebx
 804900f:	83 c4 10             	add    $0x10,%esp
 8049012:	85 c0                	test   %eax,%eax
 8049014:	79 19                	jns    804902f <open_clientfd+0x32>
 8049016:	83 ec 0c             	sub    $0xc,%esp
 8049019:	68 0d 9d 04 08       	push   $0x8049d0d
 804901e:	e8 3d f8 ff ff       	call   8048860 <puts@plt>
 8049023:	c7 04 24 08 00 00 00 	movl   $0x8,(%esp)
 804902a:	e8 61 f8 ff ff       	call   8048890 <exit@plt>
 804902f:	83 ec 0c             	sub    $0xc,%esp
 8049032:	ff 74 24 2c          	pushl  0x2c(%esp)
 8049036:	e8 05 f9 ff ff       	call   8048940 <gethostbyname@plt>
 804903b:	83 c4 10             	add    $0x10,%esp
 804903e:	85 c0                	test   %eax,%eax
 8049040:	75 19                	jne    804905b <open_clientfd+0x5e>
 8049042:	83 ec 0c             	sub    $0xc,%esp
 8049045:	68 1b 9d 04 08       	push   $0x8049d1b
 804904a:	e8 11 f8 ff ff       	call   8048860 <puts@plt>
 804904f:	c7 04 24 08 00 00 00 	movl   $0x8,(%esp)
 8049056:	e8 35 f8 ff ff       	call   8048890 <exit@plt>
 804905b:	89 e6                	mov    %esp,%esi
 804905d:	c7 04 24 00 00 00 00 	movl   $0x0,(%esp)
 8049064:	c7 44 24 04 00 00 00 	movl   $0x0,0x4(%esp)
 804906b:	00 
 804906c:	c7 44 24 08 00 00 00 	movl   $0x0,0x8(%esp)
 8049073:	00 
 8049074:	c7 44 24 0c 00 00 00 	movl   $0x0,0xc(%esp)
 804907b:	00 
 804907c:	66 c7 04 24 02 00    	movw   $0x2,(%esp)
 8049082:	83 ec 04             	sub    $0x4,%esp
 8049085:	ff 70 0c             	pushl  0xc(%eax)
 8049088:	8d 54 24 0c          	lea    0xc(%esp),%edx
 804908c:	52                   	push   %edx
 804908d:	8b 40 10             	mov    0x10(%eax),%eax
 8049090:	ff 30                	pushl  (%eax)
 8049092:	e8 89 f7 ff ff       	call   8048820 <bcopy@plt>
 8049097:	0f b7 44 24 34       	movzwl 0x34(%esp),%eax
 804909c:	66 c1 c8 08          	ror    $0x8,%ax
 80490a0:	66 89 44 24 12       	mov    %ax,0x12(%esp)
 80490a5:	83 c4 0c             	add    $0xc,%esp
 80490a8:	6a 10                	push   $0x10
 80490aa:	56                   	push   %esi
 80490ab:	53                   	push   %ebx
 80490ac:	e8 af f8 ff ff       	call   8048960 <connect@plt>
 80490b1:	83 c4 10             	add    $0x10,%esp
 80490b4:	85 c0                	test   %eax,%eax
 80490b6:	79 19                	jns    80490d1 <open_clientfd+0xd4>
 80490b8:	83 ec 0c             	sub    $0xc,%esp
 80490bb:	68 29 9d 04 08       	push   $0x8049d29
 80490c0:	e8 9b f7 ff ff       	call   8048860 <puts@plt>
 80490c5:	c7 04 24 08 00 00 00 	movl   $0x8,(%esp)
 80490cc:	e8 bf f7 ff ff       	call   8048890 <exit@plt>
 80490d1:	89 d8                	mov    %ebx,%eax
 80490d3:	83 c4 14             	add    $0x14,%esp
 80490d6:	5b                   	pop    %ebx
 80490d7:	5e                   	pop    %esi
 80490d8:	c3                   	ret    

080490d9 <initialize_bomb>:
 80490d9:	83 ec 14             	sub    $0x14,%esp
 80490dc:	68 05 8f 04 08       	push   $0x8048f05
 80490e1:	6a 02                	push   $0x2
 80490e3:	e8 f8 f6 ff ff       	call   80487e0 <signal@plt>
 80490e8:	83 c4 08             	add    $0x8,%esp
 80490eb:	6a 50                	push   $0x50
 80490ed:	68 37 9d 04 08       	push   $0x8049d37
 80490f2:	e8 06 ff ff ff       	call   8048ffd <open_clientfd>
 80490f7:	89 04 24             	mov    %eax,(%esp)
 80490fa:	e8 71 f8 ff ff       	call   8048970 <close@plt>
 80490ff:	83 c4 1c             	add    $0x1c,%esp
 8049102:	c3                   	ret    

08049103 <blank_line>:
 8049103:	56                   	push   %esi
 8049104:	53                   	push   %ebx
 8049105:	83 ec 04             	sub    $0x4,%esp
 8049108:	8b 74 24 10          	mov    0x10(%esp),%esi
 804910c:	eb 14                	jmp    8049122 <blank_line+0x1f>
 804910e:	e8 6d f8 ff ff       	call   8048980 <__ctype_b_loc@plt>
 8049113:	83 c6 01             	add    $0x1,%esi
 8049116:	0f be db             	movsbl %bl,%ebx
 8049119:	8b 00                	mov    (%eax),%eax
 804911b:	f6 44 58 01 20       	testb  $0x20,0x1(%eax,%ebx,2)
 8049120:	74 0e                	je     8049130 <blank_line+0x2d>
 8049122:	0f b6 1e             	movzbl (%esi),%ebx
 8049125:	84 db                	test   %bl,%bl
 8049127:	75 e5                	jne    804910e <blank_line+0xb>
 8049129:	b8 01 00 00 00       	mov    $0x1,%eax
 804912e:	eb 05                	jmp    8049135 <blank_line+0x32>
 8049130:	b8 00 00 00 00       	mov    $0x0,%eax
 8049135:	83 c4 04             	add    $0x4,%esp
 8049138:	5b                   	pop    %ebx
 8049139:	5e                   	pop    %esi
 804913a:	c3                   	ret    

0804913b <skip>:
 804913b:	53                   	push   %ebx
 804913c:	83 ec 08             	sub    $0x8,%esp
 804913f:	83 ec 04             	sub    $0x4,%esp
 8049142:	ff 35 ac b7 04 08    	pushl  0x804b7ac
 8049148:	6a 50                	push   $0x50
 804914a:	a1 a8 b7 04 08       	mov    0x804b7a8,%eax
 804914f:	8d 04 80             	lea    (%eax,%eax,4),%eax
 8049152:	c1 e0 04             	shl    $0x4,%eax
 8049155:	05 c0 b7 04 08       	add    $0x804b7c0,%eax
 804915a:	50                   	push   %eax
 804915b:	e8 60 f6 ff ff       	call   80487c0 <fgets@plt>
 8049160:	89 c3                	mov    %eax,%ebx
 8049162:	83 c4 10             	add    $0x10,%esp
 8049165:	85 c0                	test   %eax,%eax
 8049167:	74 10                	je     8049179 <skip+0x3e>
 8049169:	83 ec 0c             	sub    $0xc,%esp
 804916c:	50                   	push   %eax
 804916d:	e8 91 ff ff ff       	call   8049103 <blank_line>
 8049172:	83 c4 10             	add    $0x10,%esp
 8049175:	85 c0                	test   %eax,%eax
 8049177:	75 c6                	jne    804913f <skip+0x4>
 8049179:	89 d8                	mov    %ebx,%eax
 804917b:	83 c4 08             	add    $0x8,%esp
 804917e:	5b                   	pop    %ebx
 804917f:	c3                   	ret    

08049180 <writen>:
 8049180:	55                   	push   %ebp
 8049181:	57                   	push   %edi
 8049182:	56                   	push   %esi
 8049183:	53                   	push   %ebx
 8049184:	83 ec 0c             	sub    $0xc,%esp
 8049187:	8b 7c 24 20          	mov    0x20(%esp),%edi
 804918b:	8b 74 24 24          	mov    0x24(%esp),%esi
 804918f:	8b 6c 24 28          	mov    0x28(%esp),%ebp
 8049193:	85 ed                	test   %ebp,%ebp
 8049195:	74 29                	je     80491c0 <writen+0x40>
 8049197:	89 eb                	mov    %ebp,%ebx
 8049199:	83 ec 04             	sub    $0x4,%esp
 804919c:	53                   	push   %ebx
 804919d:	56                   	push   %esi
 804919e:	57                   	push   %edi
 804919f:	e8 1c f7 ff ff       	call   80488c0 <write@plt>
 80491a4:	83 c4 10             	add    $0x10,%esp
 80491a7:	85 c0                	test   %eax,%eax
 80491a9:	7f 0f                	jg     80491ba <writen+0x3a>
 80491ab:	e8 40 f7 ff ff       	call   80488f0 <__errno_location@plt>
 80491b0:	83 38 04             	cmpl   $0x4,(%eax)
 80491b3:	75 0f                	jne    80491c4 <writen+0x44>
 80491b5:	b8 00 00 00 00       	mov    $0x0,%eax
 80491ba:	01 c6                	add    %eax,%esi
 80491bc:	29 c3                	sub    %eax,%ebx
 80491be:	75 d9                	jne    8049199 <writen+0x19>
 80491c0:	89 e8                	mov    %ebp,%eax
 80491c2:	eb 05                	jmp    80491c9 <writen+0x49>
 80491c4:	b8 ff ff ff ff       	mov    $0xffffffff,%eax
 80491c9:	83 c4 0c             	add    $0xc,%esp
 80491cc:	5b                   	pop    %ebx
 80491cd:	5e                   	pop    %esi
 80491ce:	5f                   	pop    %edi
 80491cf:	5d                   	pop    %ebp
 80491d0:	c3                   	ret    

080491d1 <send_msg>:
 80491d1:	55                   	push   %ebp
 80491d2:	57                   	push   %edi
 80491d3:	56                   	push   %esi
 80491d4:	53                   	push   %ebx
 80491d5:	81 ec 80 24 00 00    	sub    $0x2480,%esp
 80491db:	6a 00                	push   $0x0
 80491dd:	6a 01                	push   $0x1
 80491df:	6a 02                	push   $0x2
 80491e1:	e8 4a f7 ff ff       	call   8048930 <socket@plt>
 80491e6:	89 44 24 1c          	mov    %eax,0x1c(%esp)
 80491ea:	83 c4 10             	add    $0x10,%esp
 80491ed:	85 c0                	test   %eax,%eax
 80491ef:	79 30                	jns    8049221 <send_msg+0x50>
 80491f1:	83 ec 04             	sub    $0x4,%esp
 80491f4:	68 57 9d 04 08       	push   $0x8049d57
 80491f9:	68 a1 99 04 08       	push   $0x80499a1
 80491fe:	ff 35 a0 b7 04 08    	pushl  0x804b7a0
 8049204:	e8 a7 f6 ff ff       	call   80488b0 <fprintf@plt>
 8049209:	83 c4 04             	add    $0x4,%esp
 804920c:	ff 74 24 18          	pushl  0x18(%esp)
 8049210:	e8 5b f7 ff ff       	call   8048970 <close@plt>
 8049215:	c7 04 24 01 00 00 00 	movl   $0x1,(%esp)
 804921c:	e8 6f f6 ff ff       	call   8048890 <exit@plt>
 8049221:	c7 84 24 64 24 00 00 	movl   $0x0,0x2464(%esp)
 8049228:	00 00 00 00 
 804922c:	c7 84 24 68 24 00 00 	movl   $0x0,0x2468(%esp)
 8049233:	00 00 00 00 
 8049237:	c7 84 24 6c 24 00 00 	movl   $0x0,0x246c(%esp)
 804923e:	00 00 00 00 
 8049242:	66 c7 84 24 60 24 00 	movw   $0x2,0x2460(%esp)
 8049249:	00 02 00 
 804924c:	66 c7 84 24 62 24 00 	movw   $0x7ac8,0x2462(%esp)
 8049253:	00 c8 7a 
 8049256:	83 ec 04             	sub    $0x4,%esp
 8049259:	8d 84 24 68 24 00 00 	lea    0x2468(%esp),%eax
 8049260:	50                   	push   %eax
 8049261:	68 37 9d 04 08       	push   $0x8049d37
 8049266:	6a 02                	push   $0x2
 8049268:	e8 43 f5 ff ff       	call   80487b0 <inet_pton@plt>
 804926d:	83 c4 10             	add    $0x10,%esp
 8049270:	85 c0                	test   %eax,%eax
 8049272:	79 3b                	jns    80492af <send_msg+0xde>
 8049274:	83 ec 04             	sub    $0x4,%esp
 8049277:	68 cb 9d 04 08       	push   $0x8049dcb
 804927c:	68 a1 99 04 08       	push   $0x80499a1
 8049281:	ff 35 a0 b7 04 08    	pushl  0x804b7a0
 8049287:	e8 24 f6 ff ff       	call   80488b0 <fprintf@plt>
 804928c:	83 c4 10             	add    $0x10,%esp
 804928f:	83 7c 24 0c 00       	cmpl   $0x0,0xc(%esp)
 8049294:	74 0f                	je     80492a5 <send_msg+0xd4>
 8049296:	83 ec 0c             	sub    $0xc,%esp
 8049299:	ff 74 24 18          	pushl  0x18(%esp)
 804929d:	e8 ce f6 ff ff       	call   8048970 <close@plt>
 80492a2:	83 c4 10             	add    $0x10,%esp
 80492a5:	83 ec 0c             	sub    $0xc,%esp
 80492a8:	6a 01                	push   $0x1
 80492aa:	e8 e1 f5 ff ff       	call   8048890 <exit@plt>
 80492af:	83 ec 04             	sub    $0x4,%esp
 80492b2:	6a 10                	push   $0x10
 80492b4:	8d 84 24 68 24 00 00 	lea    0x2468(%esp),%eax
 80492bb:	50                   	push   %eax
 80492bc:	ff 74 24 18          	pushl  0x18(%esp)
 80492c0:	e8 9b f6 ff ff       	call   8048960 <connect@plt>
 80492c5:	83 c4 10             	add    $0x10,%esp
 80492c8:	85 c0                	test   %eax,%eax
 80492ca:	79 3b                	jns    8049307 <send_msg+0x136>
 80492cc:	83 ec 04             	sub    $0x4,%esp
 80492cf:	68 64 9d 04 08       	push   $0x8049d64
 80492d4:	68 a1 99 04 08       	push   $0x80499a1
 80492d9:	ff 35 a0 b7 04 08    	pushl  0x804b7a0
 80492df:	e8 cc f5 ff ff       	call   80488b0 <fprintf@plt>
 80492e4:	83 c4 10             	add    $0x10,%esp
 80492e7:	83 7c 24 0c 00       	cmpl   $0x0,0xc(%esp)
 80492ec:	74 0f                	je     80492fd <send_msg+0x12c>
 80492ee:	83 ec 0c             	sub    $0xc,%esp
 80492f1:	ff 74 24 18          	pushl  0x18(%esp)
 80492f5:	e8 76 f6 ff ff       	call   8048970 <close@plt>
 80492fa:	83 c4 10             	add    $0x10,%esp
 80492fd:	83 ec 0c             	sub    $0xc,%esp
 8049300:	6a 01                	push   $0x1
 8049302:	e8 89 f5 ff ff       	call   8048890 <exit@plt>
 8049307:	8d 74 24 60          	lea    0x60(%esp),%esi
 804930b:	c7 44 24 60 53 75 62 	movl   $0x6a627553,0x60(%esp)
 8049312:	6a 
 8049313:	c7 44 24 64 65 63 74 	movl   $0x3a746365,0x64(%esp)
 804931a:	3a 
 804931b:	c7 44 24 68 20 42 6f 	movl   $0x6d6f4220,0x68(%esp)
 8049322:	6d 
 8049323:	c7 44 24 6c 62 20 6e 	movl   $0x6f6e2062,0x6c(%esp)
 804932a:	6f 
 804932b:	c7 44 24 70 74 69 66 	movl   $0x69666974,0x70(%esp)
 8049332:	69 
 8049333:	c7 44 24 74 63 61 74 	movl   $0x69746163,0x74(%esp)
 804933a:	69 
 804933b:	c7 44 24 78 6f 6e 0a 	movl   $0xa6e6f,0x78(%esp)
 8049342:	00 
 8049343:	83 ec 08             	sub    $0x8,%esp
 8049346:	56                   	push   %esi
 8049347:	8d 9c 24 6c 04 00 00 	lea    0x46c(%esp),%ebx
 804934e:	53                   	push   %ebx
 804934f:	e8 dc f4 ff ff       	call   8048830 <strcat@plt>
 8049354:	66 c7 44 24 70 0a 00 	movw   $0xa,0x70(%esp)
 804935b:	83 c4 08             	add    $0x8,%esp
 804935e:	56                   	push   %esi
 804935f:	53                   	push   %ebx
 8049360:	e8 cb f4 ff ff       	call   8048830 <strcat@plt>
 8049365:	c7 04 24 00 00 00 00 	movl   $0x0,(%esp)
 804936c:	e8 ff f3 ff ff       	call   8048770 <cuserid@plt>
 8049371:	83 c4 10             	add    $0x10,%esp
 8049374:	85 c0                	test   %eax,%eax
 8049376:	75 16                	jne    804938e <send_msg+0x1bd>
 8049378:	c7 44 24 10 6e 6f 62 	movl   $0x6f626f6e,0x10(%esp)
 804937f:	6f 
 8049380:	66 c7 44 24 14 64 79 	movw   $0x7964,0x14(%esp)
 8049387:	c6 44 24 16 00       	movb   $0x0,0x16(%esp)
 804938c:	eb 11                	jmp    804939f <send_msg+0x1ce>
 804938e:	83 ec 08             	sub    $0x8,%esp
 8049391:	50                   	push   %eax
 8049392:	8d 44 24 1c          	lea    0x1c(%esp),%eax
 8049396:	50                   	push   %eax
 8049397:	e8 a4 f4 ff ff       	call   8048840 <strcpy@plt>
 804939c:	83 c4 10             	add    $0x10,%esp
 804939f:	8b 15 a8 b7 04 08    	mov    0x804b7a8,%edx
 80493a5:	b8 46 9d 04 08       	mov    $0x8049d46,%eax
 80493aa:	83 bc 24 90 24 00 00 	cmpl   $0x0,0x2490(%esp)
 80493b1:	00 
 80493b2:	75 05                	jne    80493b9 <send_msg+0x1e8>
 80493b4:	b8 4e 9d 04 08       	mov    $0x8049d4e,%eax
 80493b9:	83 ec 04             	sub    $0x4,%esp
 80493bc:	52                   	push   %edx
 80493bd:	50                   	push   %eax
 80493be:	8d 44 24 1c          	lea    0x1c(%esp),%eax
 80493c2:	50                   	push   %eax
 80493c3:	ff 35 40 b7 04 08    	pushl  0x804b740
 80493c9:	68 40 b3 04 08       	push   $0x804b340
 80493ce:	68 72 9d 04 08       	push   $0x8049d72
 80493d3:	8d 5c 24 7c          	lea    0x7c(%esp),%ebx
 80493d7:	53                   	push   %ebx
 80493d8:	e8 33 f5 ff ff       	call   8048910 <sprintf@plt>
 80493dd:	83 c4 18             	add    $0x18,%esp
 80493e0:	53                   	push   %ebx
 80493e1:	8d 84 24 6c 04 00 00 	lea    0x46c(%esp),%eax
 80493e8:	50                   	push   %eax
 80493e9:	e8 42 f4 ff ff       	call   8048830 <strcat@plt>
 80493ee:	83 c4 10             	add    $0x10,%esp
 80493f1:	83 3d a8 b7 04 08 00 	cmpl   $0x0,0x804b7a8
 80493f8:	7e 50                	jle    804944a <send_msg+0x279>
 80493fa:	be c0 b7 04 08       	mov    $0x804b7c0,%esi
 80493ff:	bb 00 00 00 00       	mov    $0x0,%ebx
 8049404:	8d 6c 24 10          	lea    0x10(%esp),%ebp
 8049408:	8d 7c 24 60          	lea    0x60(%esp),%edi
 804940c:	83 c3 01             	add    $0x1,%ebx
 804940f:	83 ec 04             	sub    $0x4,%esp
 8049412:	56                   	push   %esi
 8049413:	53                   	push   %ebx
 8049414:	55                   	push   %ebp
 8049415:	ff 35 40 b7 04 08    	pushl  0x804b740
 804941b:	68 40 b3 04 08       	push   $0x804b340
 8049420:	68 8e 9d 04 08       	push   $0x8049d8e
 8049425:	57                   	push   %edi
 8049426:	e8 e5 f4 ff ff       	call   8048910 <sprintf@plt>
 804942b:	83 c4 18             	add    $0x18,%esp
 804942e:	57                   	push   %edi
 804942f:	8d 84 24 6c 04 00 00 	lea    0x46c(%esp),%eax
 8049436:	50                   	push   %eax
 8049437:	e8 f4 f3 ff ff       	call   8048830 <strcat@plt>
 804943c:	83 c6 50             	add    $0x50,%esi
 804943f:	83 c4 10             	add    $0x10,%esp
 8049442:	39 1d a8 b7 04 08    	cmp    %ebx,0x804b7a8
 8049448:	7f c2                	jg     804940c <send_msg+0x23b>
 804944a:	8d 9c 24 60 04 00 00 	lea    0x460(%esp),%ebx
 8049451:	be ff ff ff ff       	mov    $0xffffffff,%esi
 8049456:	89 df                	mov    %ebx,%edi
 8049458:	bd 00 00 00 00       	mov    $0x0,%ebp
 804945d:	89 f1                	mov    %esi,%ecx
 804945f:	89 e8                	mov    %ebp,%eax
 8049461:	f2 ae                	repnz scas %es:(%edi),%al
 8049463:	f7 d1                	not    %ecx
 8049465:	83 e9 01             	sub    $0x1,%ecx
 8049468:	83 ec 04             	sub    $0x4,%esp
 804946b:	51                   	push   %ecx
 804946c:	53                   	push   %ebx
 804946d:	ff 74 24 18          	pushl  0x18(%esp)
 8049471:	e8 0a fd ff ff       	call   8049180 <writen>
 8049476:	89 c2                	mov    %eax,%edx
 8049478:	89 df                	mov    %ebx,%edi
 804947a:	89 f1                	mov    %esi,%ecx
 804947c:	89 e8                	mov    %ebp,%eax
 804947e:	f2 ae                	repnz scas %es:(%edi),%al
 8049480:	f7 d1                	not    %ecx
 8049482:	83 e9 01             	sub    $0x1,%ecx
 8049485:	83 c4 10             	add    $0x10,%esp
 8049488:	39 ca                	cmp    %ecx,%edx
 804948a:	73 3b                	jae    80494c7 <send_msg+0x2f6>
 804948c:	83 ec 04             	sub    $0x4,%esp
 804948f:	68 aa 9d 04 08       	push   $0x8049daa
 8049494:	68 a1 99 04 08       	push   $0x80499a1
 8049499:	ff 35 a0 b7 04 08    	pushl  0x804b7a0
 804949f:	e8 0c f4 ff ff       	call   80488b0 <fprintf@plt>
 80494a4:	83 c4 10             	add    $0x10,%esp
 80494a7:	83 7c 24 0c 00       	cmpl   $0x0,0xc(%esp)
 80494ac:	74 0f                	je     80494bd <send_msg+0x2ec>
 80494ae:	83 ec 0c             	sub    $0xc,%esp
 80494b1:	ff 74 24 18          	pushl  0x18(%esp)
 80494b5:	e8 b6 f4 ff ff       	call   8048970 <close@plt>
 80494ba:	83 c4 10             	add    $0x10,%esp
 80494bd:	83 ec 0c             	sub    $0xc,%esp
 80494c0:	6a 01                	push   $0x1
 80494c2:	e8 c9 f3 ff ff       	call   8048890 <exit@plt>
 80494c7:	83 ec 0c             	sub    $0xc,%esp
 80494ca:	ff 74 24 18          	pushl  0x18(%esp)
 80494ce:	e8 9d f4 ff ff       	call   8048970 <close@plt>
 80494d3:	81 c4 8c 24 00 00    	add    $0x248c,%esp
 80494d9:	5b                   	pop    %ebx
 80494da:	5e                   	pop    %esi
 80494db:	5f                   	pop    %edi
 80494dc:	5d                   	pop    %ebp
 80494dd:	c3                   	ret    

080494de <send_msg_2>:
 80494de:	55                   	push   %ebp
 80494df:	57                   	push   %edi
 80494e0:	56                   	push   %esi
 80494e1:	53                   	push   %ebx
 80494e2:	83 ec 78             	sub    $0x78,%esp
 80494e5:	6a 00                	push   $0x0
 80494e7:	e8 b4 f2 ff ff       	call   80487a0 <dup@plt>
 80494ec:	89 44 24 1c          	mov    %eax,0x1c(%esp)
 80494f0:	83 c4 10             	add    $0x10,%esp
 80494f3:	83 f8 ff             	cmp    $0xffffffff,%eax
 80494f6:	75 19                	jne    8049511 <send_msg_2+0x33>
 80494f8:	83 ec 0c             	sub    $0xc,%esp
 80494fb:	68 bd 9d 04 08       	push   $0x8049dbd
 8049500:	e8 5b f3 ff ff       	call   8048860 <puts@plt>
 8049505:	c7 04 24 08 00 00 00 	movl   $0x8,(%esp)
 804950c:	e8 7f f3 ff ff       	call   8048890 <exit@plt>
 8049511:	83 ec 0c             	sub    $0xc,%esp
 8049514:	6a 00                	push   $0x0
 8049516:	e8 55 f4 ff ff       	call   8048970 <close@plt>
 804951b:	83 c4 10             	add    $0x10,%esp
 804951e:	83 f8 ff             	cmp    $0xffffffff,%eax
 8049521:	75 19                	jne    804953c <send_msg_2+0x5e>
 8049523:	83 ec 0c             	sub    $0xc,%esp
 8049526:	68 d1 9d 04 08       	push   $0x8049dd1
 804952b:	e8 30 f3 ff ff       	call   8048860 <puts@plt>
 8049530:	c7 04 24 08 00 00 00 	movl   $0x8,(%esp)
 8049537:	e8 54 f3 ff ff       	call   8048890 <exit@plt>
 804953c:	e8 df f3 ff ff       	call   8048920 <tmpfile@plt>
 8049541:	89 c7                	mov    %eax,%edi
 8049543:	85 c0                	test   %eax,%eax
 8049545:	75 19                	jne    8049560 <send_msg_2+0x82>
 8049547:	83 ec 0c             	sub    $0xc,%esp
 804954a:	68 e4 9d 04 08       	push   $0x8049de4
 804954f:	e8 0c f3 ff ff       	call   8048860 <puts@plt>
 8049554:	c7 04 24 08 00 00 00 	movl   $0x8,(%esp)
 804955b:	e8 30 f3 ff ff       	call   8048890 <exit@plt>
 8049560:	50                   	push   %eax
 8049561:	6a 1b                	push   $0x1b
 8049563:	6a 01                	push   $0x1
 8049565:	68 f9 9d 04 08       	push   $0x8049df9
 804956a:	e8 a1 f2 ff ff       	call   8048810 <fwrite@plt>
 804956f:	83 c4 08             	add    $0x8,%esp
 8049572:	57                   	push   %edi
 8049573:	6a 0a                	push   $0xa
 8049575:	e8 86 f3 ff ff       	call   8048900 <fputc@plt>
 804957a:	c7 04 24 00 00 00 00 	movl   $0x0,(%esp)
 8049581:	e8 ea f1 ff ff       	call   8048770 <cuserid@plt>
 8049586:	83 c4 10             	add    $0x10,%esp
 8049589:	85 c0                	test   %eax,%eax
 804958b:	75 16                	jne    80495a3 <send_msg_2+0xc5>
 804958d:	c7 44 24 10 6e 6f 62 	movl   $0x6f626f6e,0x10(%esp)
 8049594:	6f 
 8049595:	66 c7 44 24 14 64 79 	movw   $0x7964,0x14(%esp)
 804959c:	c6 44 24 16 00       	movb   $0x0,0x16(%esp)
 80495a1:	eb 11                	jmp    80495b4 <send_msg_2+0xd6>
 80495a3:	83 ec 08             	sub    $0x8,%esp
 80495a6:	50                   	push   %eax
 80495a7:	8d 44 24 1c          	lea    0x1c(%esp),%eax
 80495ab:	50                   	push   %eax
 80495ac:	e8 8f f2 ff ff       	call   8048840 <strcpy@plt>
 80495b1:	83 c4 10             	add    $0x10,%esp
 80495b4:	8b 15 a8 b7 04 08    	mov    0x804b7a8,%edx
 80495ba:	b8 46 9d 04 08       	mov    $0x8049d46,%eax
 80495bf:	83 bc 24 80 00 00 00 	cmpl   $0x0,0x80(%esp)
 80495c6:	00 
 80495c7:	75 05                	jne    80495ce <send_msg_2+0xf0>
 80495c9:	b8 4e 9d 04 08       	mov    $0x8049d4e,%eax
 80495ce:	83 ec 04             	sub    $0x4,%esp
 80495d1:	52                   	push   %edx
 80495d2:	50                   	push   %eax
 80495d3:	8d 44 24 1c          	lea    0x1c(%esp),%eax
 80495d7:	50                   	push   %eax
 80495d8:	ff 35 40 b7 04 08    	pushl  0x804b740
 80495de:	68 40 b3 04 08       	push   $0x804b340
 80495e3:	68 72 9d 04 08       	push   $0x8049d72
 80495e8:	57                   	push   %edi
 80495e9:	e8 c2 f2 ff ff       	call   80488b0 <fprintf@plt>
 80495ee:	83 c4 20             	add    $0x20,%esp
 80495f1:	83 3d a8 b7 04 08 00 	cmpl   $0x0,0x804b7a8
 80495f8:	7e 3b                	jle    8049635 <send_msg_2+0x157>
 80495fa:	be c0 b7 04 08       	mov    $0x804b7c0,%esi
 80495ff:	bb 00 00 00 00       	mov    $0x0,%ebx
 8049604:	8d 6c 24 10          	lea    0x10(%esp),%ebp
 8049608:	83 c3 01             	add    $0x1,%ebx
 804960b:	83 ec 04             	sub    $0x4,%esp
 804960e:	56                   	push   %esi
 804960f:	53                   	push   %ebx
 8049610:	55                   	push   %ebp
 8049611:	ff 35 40 b7 04 08    	pushl  0x804b740
 8049617:	68 40 b3 04 08       	push   $0x804b340
 804961c:	68 8e 9d 04 08       	push   $0x8049d8e
 8049621:	57                   	push   %edi
 8049622:	e8 89 f2 ff ff       	call   80488b0 <fprintf@plt>
 8049627:	83 c6 50             	add    $0x50,%esi
 804962a:	83 c4 20             	add    $0x20,%esp
 804962d:	39 1d a8 b7 04 08    	cmp    %ebx,0x804b7a8
 8049633:	7f d3                	jg     8049608 <send_msg_2+0x12a>
 8049635:	83 ec 0c             	sub    $0xc,%esp
 8049638:	57                   	push   %edi
 8049639:	e8 c2 f1 ff ff       	call   8048800 <rewind@plt>
 804963e:	c7 04 24 15 9e 04 08 	movl   $0x8049e15,(%esp)
 8049645:	68 1f 9e 04 08       	push   $0x8049e1f
 804964a:	68 27 9e 04 08       	push   $0x8049e27
 804964f:	68 3e 9e 04 08       	push   $0x8049e3e
 8049654:	68 00 be 04 08       	push   $0x804be00
 8049659:	e8 b2 f2 ff ff       	call   8048910 <sprintf@plt>
 804965e:	83 c4 14             	add    $0x14,%esp
 8049661:	68 00 be 04 08       	push   $0x804be00
 8049666:	e8 05 f2 ff ff       	call   8048870 <system@plt>
 804966b:	83 c4 10             	add    $0x10,%esp
 804966e:	85 c0                	test   %eax,%eax
 8049670:	74 19                	je     804968b <send_msg_2+0x1ad>
 8049672:	83 ec 0c             	sub    $0xc,%esp
 8049675:	68 47 9e 04 08       	push   $0x8049e47
 804967a:	e8 e1 f1 ff ff       	call   8048860 <puts@plt>
 804967f:	c7 04 24 08 00 00 00 	movl   $0x8,(%esp)
 8049686:	e8 05 f2 ff ff       	call   8048890 <exit@plt>
 804968b:	83 ec 0c             	sub    $0xc,%esp
 804968e:	57                   	push   %edi
 804968f:	e8 3c f1 ff ff       	call   80487d0 <fclose@plt>
 8049694:	83 c4 10             	add    $0x10,%esp
 8049697:	85 c0                	test   %eax,%eax
 8049699:	74 19                	je     80496b4 <send_msg_2+0x1d6>
 804969b:	83 ec 0c             	sub    $0xc,%esp
 804969e:	68 61 9e 04 08       	push   $0x8049e61
 80496a3:	e8 b8 f1 ff ff       	call   8048860 <puts@plt>
 80496a8:	c7 04 24 08 00 00 00 	movl   $0x8,(%esp)
 80496af:	e8 dc f1 ff ff       	call   8048890 <exit@plt>
 80496b4:	83 ec 0c             	sub    $0xc,%esp
 80496b7:	ff 74 24 18          	pushl  0x18(%esp)
 80496bb:	e8 e0 f0 ff ff       	call   80487a0 <dup@plt>
 80496c0:	83 c4 10             	add    $0x10,%esp
 80496c3:	85 c0                	test   %eax,%eax
 80496c5:	74 19                	je     80496e0 <send_msg_2+0x202>
 80496c7:	83 ec 0c             	sub    $0xc,%esp
 80496ca:	68 7a 9e 04 08       	push   $0x8049e7a
 80496cf:	e8 8c f1 ff ff       	call   8048860 <puts@plt>
 80496d4:	c7 04 24 08 00 00 00 	movl   $0x8,(%esp)
 80496db:	e8 b0 f1 ff ff       	call   8048890 <exit@plt>
 80496e0:	83 ec 0c             	sub    $0xc,%esp
 80496e3:	ff 74 24 18          	pushl  0x18(%esp)
 80496e7:	e8 84 f2 ff ff       	call   8048970 <close@plt>
 80496ec:	83 c4 10             	add    $0x10,%esp
 80496ef:	85 c0                	test   %eax,%eax
 80496f1:	74 19                	je     804970c <send_msg_2+0x22e>
 80496f3:	83 ec 0c             	sub    $0xc,%esp
 80496f6:	68 95 9e 04 08       	push   $0x8049e95
 80496fb:	e8 60 f1 ff ff       	call   8048860 <puts@plt>
 8049700:	c7 04 24 08 00 00 00 	movl   $0x8,(%esp)
 8049707:	e8 84 f1 ff ff       	call   8048890 <exit@plt>
 804970c:	83 c4 6c             	add    $0x6c,%esp
 804970f:	5b                   	pop    %ebx
 8049710:	5e                   	pop    %esi
 8049711:	5f                   	pop    %edi
 8049712:	5d                   	pop    %ebp
 8049713:	c3                   	ret    

08049714 <explode_bomb>:
 8049714:	83 ec 18             	sub    $0x18,%esp
 8049717:	68 ac 9e 04 08       	push   $0x8049eac
 804971c:	e8 3f f1 ff ff       	call   8048860 <puts@plt>
 8049721:	c7 04 24 b5 9e 04 08 	movl   $0x8049eb5,(%esp)
 8049728:	e8 33 f1 ff ff       	call   8048860 <puts@plt>
 804972d:	c7 04 24 00 00 00 00 	movl   $0x0,(%esp)
 8049734:	e8 98 fa ff ff       	call   80491d1 <send_msg>
 8049739:	c7 04 24 f8 9b 04 08 	movl   $0x8049bf8,(%esp)
 8049740:	e8 1b f1 ff ff       	call   8048860 <puts@plt>
 8049745:	c7 04 24 08 00 00 00 	movl   $0x8,(%esp)
 804974c:	e8 3f f1 ff ff       	call   8048890 <exit@plt>

08049751 <read_six_numbers>:
 8049751:	83 ec 0c             	sub    $0xc,%esp
 8049754:	8b 44 24 14          	mov    0x14(%esp),%eax
 8049758:	8d 50 14             	lea    0x14(%eax),%edx
 804975b:	52                   	push   %edx
 804975c:	8d 50 10             	lea    0x10(%eax),%edx
 804975f:	52                   	push   %edx
 8049760:	8d 50 0c             	lea    0xc(%eax),%edx
 8049763:	52                   	push   %edx
 8049764:	8d 50 08             	lea    0x8(%eax),%edx
 8049767:	52                   	push   %edx
 8049768:	8d 50 04             	lea    0x4(%eax),%edx
 804976b:	52                   	push   %edx
 804976c:	50                   	push   %eax
 804976d:	68 cc 9e 04 08       	push   $0x8049ecc
 8049772:	ff 74 24 2c          	pushl  0x2c(%esp)
 8049776:	e8 55 f1 ff ff       	call   80488d0 <__isoc99_sscanf@plt>
 804977b:	83 c4 20             	add    $0x20,%esp
 804977e:	83 f8 05             	cmp    $0x5,%eax
 8049781:	7f 05                	jg     8049788 <read_six_numbers+0x37>
 8049783:	e8 8c ff ff ff       	call   8049714 <explode_bomb>
 8049788:	83 c4 0c             	add    $0xc,%esp
 804978b:	c3                   	ret    

0804978c <read_line>:
 804978c:	57                   	push   %edi
 804978d:	56                   	push   %esi
 804978e:	53                   	push   %ebx
 804978f:	e8 a7 f9 ff ff       	call   804913b <skip>
 8049794:	85 c0                	test   %eax,%eax
 8049796:	75 62                	jne    80497fa <read_line+0x6e>
 8049798:	a1 80 b7 04 08       	mov    0x804b780,%eax
 804979d:	39 05 ac b7 04 08    	cmp    %eax,0x804b7ac
 80497a3:	75 12                	jne    80497b7 <read_line+0x2b>
 80497a5:	83 ec 0c             	sub    $0xc,%esp
 80497a8:	68 de 9e 04 08       	push   $0x8049ede
 80497ad:	e8 ae f0 ff ff       	call   8048860 <puts@plt>
 80497b2:	e8 5d ff ff ff       	call   8049714 <explode_bomb>
 80497b7:	83 ec 0c             	sub    $0xc,%esp
 80497ba:	68 fc 9e 04 08       	push   $0x8049efc
 80497bf:	e8 8c f0 ff ff       	call   8048850 <getenv@plt>
 80497c4:	83 c4 10             	add    $0x10,%esp
 80497c7:	85 c0                	test   %eax,%eax
 80497c9:	74 0a                	je     80497d5 <read_line+0x49>
 80497cb:	83 ec 0c             	sub    $0xc,%esp
 80497ce:	6a 00                	push   $0x0
 80497d0:	e8 bb f0 ff ff       	call   8048890 <exit@plt>
 80497d5:	a1 80 b7 04 08       	mov    0x804b780,%eax
 80497da:	a3 ac b7 04 08       	mov    %eax,0x804b7ac
 80497df:	e8 57 f9 ff ff       	call   804913b <skip>
 80497e4:	85 c0                	test   %eax,%eax
 80497e6:	75 12                	jne    80497fa <read_line+0x6e>
 80497e8:	83 ec 0c             	sub    $0xc,%esp
 80497eb:	68 de 9e 04 08       	push   $0x8049ede
 80497f0:	e8 6b f0 ff ff       	call   8048860 <puts@plt>
 80497f5:	e8 1a ff ff ff       	call   8049714 <explode_bomb>
 80497fa:	8b 1d a8 b7 04 08    	mov    0x804b7a8,%ebx
 8049800:	8d 34 9b             	lea    (%ebx,%ebx,4),%esi
 8049803:	c1 e6 04             	shl    $0x4,%esi
 8049806:	81 c6 c0 b7 04 08    	add    $0x804b7c0,%esi
 804980c:	89 f7                	mov    %esi,%edi
 804980e:	b8 00 00 00 00       	mov    $0x0,%eax
 8049813:	b9 ff ff ff ff       	mov    $0xffffffff,%ecx
 8049818:	f2 ae                	repnz scas %es:(%edi),%al
 804981a:	f7 d1                	not    %ecx
 804981c:	83 e9 01             	sub    $0x1,%ecx
 804981f:	83 f9 4f             	cmp    $0x4f,%ecx
 8049822:	75 12                	jne    8049836 <read_line+0xaa>
 8049824:	83 ec 0c             	sub    $0xc,%esp
 8049827:	68 07 9f 04 08       	push   $0x8049f07
 804982c:	e8 2f f0 ff ff       	call   8048860 <puts@plt>
 8049831:	e8 de fe ff ff       	call   8049714 <explode_bomb>
 8049836:	8d 04 9b             	lea    (%ebx,%ebx,4),%eax
 8049839:	c1 e0 04             	shl    $0x4,%eax
 804983c:	c6 84 01 bf b7 04 08 	movb   $0x0,0x804b7bf(%ecx,%eax,1)
 8049843:	00 
 8049844:	83 c3 01             	add    $0x1,%ebx
 8049847:	89 1d a8 b7 04 08    	mov    %ebx,0x804b7a8
 804984d:	89 f0                	mov    %esi,%eax
 804984f:	5b                   	pop    %ebx
 8049850:	5e                   	pop    %esi
 8049851:	5f                   	pop    %edi
 8049852:	c3                   	ret    

08049853 <phase_defused>:
 8049853:	83 ec 78             	sub    $0x78,%esp
 8049856:	6a 01                	push   $0x1
 8049858:	e8 74 f9 ff ff       	call   80491d1 <send_msg>
 804985d:	83 c4 10             	add    $0x10,%esp
 8049860:	83 3d a8 b7 04 08 06 	cmpl   $0x6,0x804b7a8
 8049867:	75 77                	jne    80498e0 <phase_defused+0x8d>
 8049869:	8d 44 24 10          	lea    0x10(%esp),%eax
 804986d:	50                   	push   %eax
 804986e:	8d 44 24 10          	lea    0x10(%esp),%eax
 8049872:	50                   	push   %eax
 8049873:	68 22 9f 04 08       	push   $0x8049f22
 8049878:	68 b0 b8 04 08       	push   $0x804b8b0
 804987d:	e8 4e f0 ff ff       	call   80488d0 <__isoc99_sscanf@plt>
 8049882:	83 c4 10             	add    $0x10,%esp
 8049885:	83 f8 02             	cmp    $0x2,%eax
 8049888:	75 3a                	jne    80498c4 <phase_defused+0x71>
 804988a:	83 ec 08             	sub    $0x8,%esp
 804988d:	68 28 9f 04 08       	push   $0x8049f28
 8049892:	8d 44 24 1c          	lea    0x1c(%esp),%eax
 8049896:	50                   	push   %eax
 8049897:	e8 fc f6 ff ff       	call   8048f98 <strings_not_equal>
 804989c:	83 c4 10             	add    $0x10,%esp
 804989f:	85 c0                	test   %eax,%eax
 80498a1:	75 21                	jne    80498c4 <phase_defused+0x71>
 80498a3:	83 ec 0c             	sub    $0xc,%esp
 80498a6:	68 1c 9c 04 08       	push   $0x8049c1c
 80498ab:	e8 b0 ef ff ff       	call   8048860 <puts@plt>
 80498b0:	c7 04 24 44 9c 04 08 	movl   $0x8049c44,(%esp)
 80498b7:	e8 a4 ef ff ff       	call   8048860 <puts@plt>
 80498bc:	e8 e8 f5 ff ff       	call   8048ea9 <secret_phase>
 80498c1:	83 c4 10             	add    $0x10,%esp
 80498c4:	83 ec 0c             	sub    $0xc,%esp
 80498c7:	68 7c 9c 04 08       	push   $0x8049c7c
 80498cc:	e8 8f ef ff ff       	call   8048860 <puts@plt>
 80498d1:	c7 04 24 a8 9c 04 08 	movl   $0x8049ca8,(%esp)
 80498d8:	e8 83 ef ff ff       	call   8048860 <puts@plt>
 80498dd:	83 c4 10             	add    $0x10,%esp
 80498e0:	83 c4 6c             	add    $0x6c,%esp
 80498e3:	c3                   	ret    
 80498e4:	66 90                	xchg   %ax,%ax
 80498e6:	66 90                	xchg   %ax,%ax
 80498e8:	66 90                	xchg   %ax,%ax
 80498ea:	66 90                	xchg   %ax,%ax
 80498ec:	66 90                	xchg   %ax,%ax
 80498ee:	66 90                	xchg   %ax,%ax

080498f0 <__libc_csu_init>:
 80498f0:	55                   	push   %ebp
 80498f1:	57                   	push   %edi
 80498f2:	31 ff                	xor    %edi,%edi
 80498f4:	56                   	push   %esi
 80498f5:	53                   	push   %ebx
 80498f6:	e8 c5 f0 ff ff       	call   80489c0 <__x86.get_pc_thunk.bx>
 80498fb:	81 c3 fd 17 00 00    	add    $0x17fd,%ebx
 8049901:	83 ec 1c             	sub    $0x1c,%esp
 8049904:	8b 6c 24 30          	mov    0x30(%esp),%ebp
 8049908:	8d b3 0c ff ff ff    	lea    -0xf4(%ebx),%esi
 804990e:	e8 21 ee ff ff       	call   8048734 <_init>
 8049913:	8d 83 08 ff ff ff    	lea    -0xf8(%ebx),%eax
 8049919:	29 c6                	sub    %eax,%esi
 804991b:	c1 fe 02             	sar    $0x2,%esi
 804991e:	85 f6                	test   %esi,%esi
 8049920:	74 27                	je     8049949 <__libc_csu_init+0x59>
 8049922:	8d b6 00 00 00 00    	lea    0x0(%esi),%esi
 8049928:	8b 44 24 38          	mov    0x38(%esp),%eax
 804992c:	89 2c 24             	mov    %ebp,(%esp)
 804992f:	89 44 24 08          	mov    %eax,0x8(%esp)
 8049933:	8b 44 24 34          	mov    0x34(%esp),%eax
 8049937:	89 44 24 04          	mov    %eax,0x4(%esp)
 804993b:	ff 94 bb 08 ff ff ff 	call   *-0xf8(%ebx,%edi,4)
 8049942:	83 c7 01             	add    $0x1,%edi
 8049945:	39 f7                	cmp    %esi,%edi
 8049947:	75 df                	jne    8049928 <__libc_csu_init+0x38>
 8049949:	83 c4 1c             	add    $0x1c,%esp
 804994c:	5b                   	pop    %ebx
 804994d:	5e                   	pop    %esi
 804994e:	5f                   	pop    %edi
 804994f:	5d                   	pop    %ebp
 8049950:	c3                   	ret    
 8049951:	eb 0d                	jmp    8049960 <__libc_csu_fini>
 8049953:	90                   	nop
 8049954:	90                   	nop
 8049955:	90                   	nop
 8049956:	90                   	nop
 8049957:	90                   	nop
 8049958:	90                   	nop
 8049959:	90                   	nop
 804995a:	90                   	nop
 804995b:	90                   	nop
 804995c:	90                   	nop
 804995d:	90                   	nop
 804995e:	90                   	nop
 804995f:	90                   	nop

08049960 <__libc_csu_fini>:
 8049960:	f3 c3                	repz ret 

Disassembly of section .fini:

08049964 <_fini>:
 8049964:	53                   	push   %ebx
 8049965:	83 ec 08             	sub    $0x8,%esp
 8049968:	e8 53 f0 ff ff       	call   80489c0 <__x86.get_pc_thunk.bx>
 804996d:	81 c3 8b 17 00 00    	add    $0x178b,%ebx
 8049973:	83 c4 08             	add    $0x8,%esp
 8049976:	5b                   	pop    %ebx
 8049977:	c3                   	ret    
